(dp0
S'/home/rin/robi_ws/src/robosherlock/robosherlock/descriptors/typesystem/cv_types.xml'
p1
F1607440719.008676
sS'/home/rin/robi_ws/src/robosherlock/robosherlock/descriptors/typesystem/ros_types.xml'
p2
F1607440719.008676
sS'/home/rin/cat_ws/src/rs_bs/descriptors/typesystem/beliefstate_types.xml'
p3
F1613823588.5129578
sS'/home/rin/robi_ws/src/robosherlock/robosherlock/descriptors/typesystem/core_types.xml'
p4
F1607440719.008676
sS'/home/rin/robi_ws/src/robosherlock/robosherlock/scripts/generate_typesystem.py'
p5
F1606062773.049271
sS'/home/rin/robi_ws/src/robosherlock/robosherlock/descriptors/typesystem/scene_types.xml'
p6
F1607440719.008676
sS'/home/rin/robi_ws/src/robosherlock/robosherlock/descriptors/typesystem/human_types.xml'
p7
F1607440719.008676
sS'/home/rin/robi_ws/src/robosherlock/robosherlock/descriptors/typesystem/pcl_types.xml'
p8
F1607440719.008676
sS'/home/rin/robi_ws/src/robosherlock/robosherlock/descriptors/typesystem/annotation_types.xml'
p9
F1607440719.008676
sS'/home/rin/robi_ws/src/robosherlock/robosherlock/descriptors/typesystem/tf_types.xml'
p10
F1607440719.008676
s.